target datalayout = "e-m:e-p270:32:32-p271:32:32-p272:64:64-i64:64-i128:128-f80:128-n8:16:32:64-S128"
target triple = "x86_64-pc-linux-gnu"

%struct.Vec_Ptr_t_ = type { i32, i32, ptr }

; Function Attrs: inlinehint nounwind uwtable
define internal void @Vec_PtrShrink(ptr noundef %0, i32 noundef %1) #2 {
  %3 = alloca ptr, align 8
  %4 = alloca i32, align 4
  store ptr %0, ptr %3, align 8, !tbaa !10
  store i32 %1, ptr %4, align 4, !tbaa !26
  %5 = load i32, ptr %4, align 4, !tbaa !26
  %6 = load ptr, ptr %3, align 8, !tbaa !10
  %7 = getelementptr inbounds nuw %struct.Vec_Ptr_t_, ptr %6, i32 0, i32 1
  store i32 %5, ptr %7, align 4, !tbaa !59
  ret void
}

; Function Attrs: inlinehint nounwind uwtable
define internal void @Vec_PtrWriteEntry(ptr noundef %0, i32 noundef %1, ptr noundef %2) #2 {
  %4 = alloca ptr, align 8
  %5 = alloca i32, align 4
  %6 = alloca ptr, align 8
  store ptr %0, ptr %4, align 8, !tbaa !10
  store i32 %1, ptr %5, align 4, !tbaa !26
  store ptr %2, ptr %6, align 8, !tbaa !47
  %7 = load ptr, ptr %6, align 8, !tbaa !47
  %8 = load ptr, ptr %4, align 8, !tbaa !10
  %9 = getelementptr inbounds nuw %struct.Vec_Ptr_t_, ptr %8, i32 0, i32 2
  %10 = load ptr, ptr %9, align 8, !tbaa !45
  %11 = load i32, ptr %5, align 4, !tbaa !26
  %12 = sext i32 %11 to i64
  %13 = getelementptr inbounds ptr, ptr %10, i64 %12
  store ptr %7, ptr %13, align 8, !tbaa !47
  ret void
}

; Function Attrs: inlinehint nounwind uwtable
define internal ptr @Abc_ObjNot(ptr noundef %0) #2 {
  %2 = alloca ptr, align 8
  store ptr %0, ptr %2, align 8, !tbaa !25
  %3 = load ptr, ptr %2, align 8, !tbaa !25
  %4 = ptrtoint ptr %3 to i64
  %5 = xor i64 %4, 1
  %6 = inttoptr i64 %5 to ptr
  ret ptr %6
}

; Function Attrs: inlinehint nounwind uwtable
define internal ptr @Vec_PtrEntry(ptr noundef %0, i32 noundef %1) #2 {
  %3 = alloca ptr, align 8
  %4 = alloca i32, align 4
  store ptr %0, ptr %3, align 8, !tbaa !10
  store i32 %1, ptr %4, align 4, !tbaa !26
  %5 = load ptr, ptr %3, align 8, !tbaa !10
  %6 = getelementptr inbounds nuw %struct.Vec_Ptr_t_, ptr %5, i32 0, i32 2
  %7 = load ptr, ptr %6, align 8, !tbaa !45
  %8 = load i32, ptr %4, align 4, !tbaa !26
  %9 = sext i32 %8 to i64
  %10 = getelementptr inbounds ptr, ptr %7, i64 %9
  %11 = load ptr, ptr %10, align 8, !tbaa !47
  ret ptr %11
}

; Function Attrs: nounwind uwtable
define ptr @Lpk_Implement(ptr noundef %0, ptr noundef %1, ptr noundef %2, i32 noundef %3) #0 {
  %5 = alloca ptr, align 8
  %6 = alloca ptr, align 8
  %7 = alloca ptr, align 8
  %8 = alloca i32, align 4
  %9 = alloca ptr, align 8
  %10 = alloca ptr, align 8
  %11 = alloca i32, align 4
  store ptr %0, ptr %5, align 8, !tbaa !3
  store ptr %1, ptr %6, align 8, !tbaa !8
  store ptr %2, ptr %7, align 8, !tbaa !10
  store i32 %3, ptr %8, align 4, !tbaa !26
  call void @llvm.lifetime.start.p0(i64 8, ptr %9) #6
  call void @llvm.lifetime.start.p0(i64 8, ptr %10) #6
  call void @llvm.lifetime.start.p0(i64 4, ptr %11) #6
  store i32 0, ptr %11, align 4, !tbaa !26
  br label %12

12:                                               ; preds = %27, %4
  %13 = load i32, ptr %11, align 4, !tbaa !26
  %14 = load i32, ptr %8, align 4, !tbaa !26
  %15 = icmp slt i32 %13, %14
  br i1 %15, label %16, label %20

16:                                               ; preds = %12
  %17 = load ptr, ptr %7, align 8, !tbaa !10
  %18 = load i32, ptr %11, align 4, !tbaa !26
  %19 = call ptr @Vec_PtrEntry(ptr noundef %17, i32 noundef %18)
  store ptr %19, ptr %9, align 8, !tbaa !25
  br label %20

20:                                               ; preds = %16, %12
  %21 = phi i1 [ false, %12 ], [ true, %16 ]
  br i1 %21, label %22, label %30

22:                                               ; preds = %20
  %23 = load ptr, ptr %7, align 8, !tbaa !10
  %24 = load i32, ptr %11, align 4, !tbaa !26
  %25 = load ptr, ptr %9, align 8, !tbaa !25
  %26 = call ptr @Abc_ObjNot(ptr noundef %25)
  call void @Vec_PtrWriteEntry(ptr noundef %23, i32 noundef %24, ptr noundef %26)
  br label %27

27:                                               ; preds = %22
  %28 = load i32, ptr %11, align 4, !tbaa !26
  %29 = add nsw i32 %28, 1
  store i32 %29, ptr %11, align 4, !tbaa !26
  br label %12, !llvm.loop !58

30:                                               ; preds = %20
  %31 = load ptr, ptr %5, align 8, !tbaa !3
  %32 = load ptr, ptr %6, align 8, !tbaa !8
  %33 = load ptr, ptr %7, align 8, !tbaa !10
  %34 = load ptr, ptr %7, align 8, !tbaa !10
  %35 = load i32, ptr %8, align 4, !tbaa !26
  %36 = call ptr @Vec_PtrEntry(ptr noundef %34, i32 noundef %35)
  %37 = call ptr @Lpk_Implement_rec(ptr noundef %31, ptr noundef %32, ptr noundef %33, ptr noundef %36)
  store ptr %37, ptr %10, align 8, !tbaa !25
  %38 = load ptr, ptr %7, align 8, !tbaa !10
  %39 = load i32, ptr %8, align 4, !tbaa !26
  call void @Vec_PtrShrink(ptr noundef %38, i32 noundef %39)
  %40 = load ptr, ptr %10, align 8, !tbaa !25
  call void @llvm.lifetime.end.p0(i64 4, ptr %11) #6
  call void @llvm.lifetime.end.p0(i64 8, ptr %10) #6
  call void @llvm.lifetime.end.p0(i64 8, ptr %9) #6
  ret ptr %40
}