; Function Attrs: nounwind uwtable
define ptr @Lpk_Implement(ptr noundef captures(none) %0, ptr noundef %1, ptr noundef captures(none) %2, i32 noundef %3) local_unnamed_addr #0 {
  %5 = icmp sgt i32 %3, 0
  br i1 %5, label %.lr.ph, label %.critedge

.lr.ph:                                           ; preds = %4
  %6 = getelementptr i8, ptr %2, i64 8
  %wide.trip.count = zext nneg i32 %3 to i64
  br label %7

7:                                                ; preds = %.lr.ph, %7
  %indvars.iv = phi i64 [ 0, %.lr.ph ], [ %indvars.iv.next, %7 ]
  %.val16 = load ptr, ptr %6, align 8, !tbaa !20
  %8 = getelementptr inbounds nuw ptr, ptr %.val16, i64 %indvars.iv
  %9 = load ptr, ptr %8, align 8, !tbaa !22
  %10 = ptrtoint ptr %9 to i64
  %11 = xor i64 %10, 1
  %12 = inttoptr i64 %11 to ptr
  store ptr %12, ptr %8, align 8, !tbaa !22
  %indvars.iv.next = add nuw nsw i64 %indvars.iv, 1
  %exitcond.not = icmp eq i64 %indvars.iv.next, %wide.trip.count
  br i1 %exitcond.not, label %.critedge, label %7, !llvm.loop !47

.critedge:                                        ; preds = %7, %4
  %13 = getelementptr i8, ptr %2, i64 8
  %.val = load ptr, ptr %13, align 8, !tbaa !20
  %14 = sext i32 %3 to i64
  %15 = getelementptr inbounds ptr, ptr %.val, i64 %14
  %16 = load ptr, ptr %15, align 8, !tbaa !22
  %17 = tail call ptr @Lpk_Implement_rec(ptr noundef %0, ptr noundef %1, ptr noundef %2, ptr noundef %16)
  %18 = getelementptr inbounds nuw i8, ptr %2, i64 4
  store i32 %3, ptr %18, align 4, !tbaa !48
  ret ptr %17
}